target datalayout = "e-m:e-p270:32:32-p271:32:32-p272:64:64-i64:64-i128:128-f80:128-n8:16:32:64-S128"
target triple = "x86_64-pc-linux-gnu"

%class.Generation = type { ptr, ptr, %class.MemRegion, %class.VirtualSpace, ptr }
%class.VirtualSpace = type { ptr, ptr, ptr, ptr, i8, i8, ptr, ptr, ptr, ptr, ptr, ptr, i64, i64, i64 }
%class.MemRegion = type { ptr, i64 }
%class.DefNewGeneration = type { %class.Generation, ptr, i32, %class.AgeTable, i64, %class.SpanSubjectToDiscoveryClosure, ptr, i8, %class.PromotionFailedInfo, %class.PreservedMarksSet, %class.Stack, i8, ptr, ptr, ptr, ptr, i64, i64, ptr, ptr, ptr, ptr, ptr, %"class.StringDedup::Requests" }
%class.AgeTable = type { [16 x i64], i8, [16 x ptr] }
%class.SpanSubjectToDiscoveryClosure = type { %class.BoolObjectClosure, %class.MemRegion }
%class.BoolObjectClosure = type { ptr }
%class.PromotionFailedInfo = type { %class.CopyFailedInfo.base, i64 }
%class.CopyFailedInfo.base = type <{ ptr, i64, i64, i64, i32 }>
%class.PreservedMarksSet = type { i8, i32, ptr }
%class.Stack = type { ptr, %class.StackBase, ptr, ptr }
%class.StackBase = type { i64, i64, i64, i64, i64, i64 }
%"class.StringDedup::Requests" = type <{ ptr, ptr, i64, i8, [7 x i8] }>

; Function Attrs: mustprogress nounwind uwtable
define linkonce_odr hidden noundef ptr @_ZNK16DefNewGeneration2toEv(ptr noundef nonnull align 8 dereferenceable(744) %0) #1 comdat align 2 {
  %2 = alloca ptr, align 8
  store ptr %0, ptr %2, align 8
  %3 = load ptr, ptr %2, align 8
  %4 = getelementptr inbounds %class.DefNewGeneration, ptr %3, i32 0, i32 20
  %5 = load ptr, ptr %4, align 8
  ret ptr %5
}

; Function Attrs: mustprogress nounwind uwtable
define linkonce_odr hidden noundef ptr @_ZNK16DefNewGeneration4fromEv(ptr noundef nonnull align 8 dereferenceable(744) %0) #1 comdat align 2 {
  %2 = alloca ptr, align 8
  store ptr %0, ptr %2, align 8
  %3 = load ptr, ptr %2, align 8
  %4 = getelementptr inbounds %class.DefNewGeneration, ptr %3, i32 0, i32 19
  %5 = load ptr, ptr %4, align 8
  ret ptr %5
}

; Function Attrs: mustprogress nounwind uwtable
define linkonce_odr hidden noundef ptr @_ZNK16DefNewGeneration4edenEv(ptr noundef nonnull align 8 dereferenceable(744) %0) #1 comdat align 2 {
  %2 = alloca ptr, align 8
  store ptr %0, ptr %2, align 8
  %3 = load ptr, ptr %2, align 8
  %4 = getelementptr inbounds %class.DefNewGeneration, ptr %3, i32 0, i32 18
  %5 = load ptr, ptr %4, align 8
  ret ptr %5
}

; Function Attrs: mustprogress nounwind uwtable
define hidden void @_ZN16DefNewGeneration6verifyEv(ptr noundef nonnull align 8 dereferenceable(744) %0) unnamed_addr #1 align 2 {
  %2 = alloca ptr, align 8
  store ptr %0, ptr %2, align 8
  %3 = load ptr, ptr %2, align 8
  %4 = call noundef ptr @_ZNK16DefNewGeneration4edenEv(ptr noundef nonnull align 8 dereferenceable(744) %3)
  call void @_ZNK15ContiguousSpace6verifyEv(ptr noundef nonnull align 8 dereferenceable(24) %4)
  %5 = call noundef ptr @_ZNK16DefNewGeneration4fromEv(ptr noundef nonnull align 8 dereferenceable(744) %3)
  call void @_ZNK15ContiguousSpace6verifyEv(ptr noundef nonnull align 8 dereferenceable(24) %5)
  %6 = call noundef ptr @_ZNK16DefNewGeneration2toEv(ptr noundef nonnull align 8 dereferenceable(744) %3)
  call void @_ZNK15ContiguousSpace6verifyEv(ptr noundef nonnull align 8 dereferenceable(24) %6)
  ret void
}