; Function Attrs: mustprogress nounwind uwtable
define hidden void @_ZN16DefNewGeneration6verifyEv(ptr nocapture noundef nonnull readonly align 8 dereferenceable(744) %0) unnamed_addr #0 align 2 {
  %2 = getelementptr inbounds i8, ptr %0, i64 672
  %3 = load ptr, ptr %2, align 8
  tail call void @_ZNK15ContiguousSpace6verifyEv(ptr noundef nonnull align 8 dereferenceable(24) %3) #19
  %4 = getelementptr inbounds i8, ptr %0, i64 680
  %5 = load ptr, ptr %4, align 8
  tail call void @_ZNK15ContiguousSpace6verifyEv(ptr noundef nonnull align 8 dereferenceable(24) %5) #19
  %6 = getelementptr inbounds i8, ptr %0, i64 688
  %7 = load ptr, ptr %6, align 8
  tail call void @_ZNK15ContiguousSpace6verifyEv(ptr noundef nonnull align 8 dereferenceable(24) %7) #19
  ret void
}